target datalayout = "e-m:e-p270:32:32-p271:32:32-p272:64:64-i64:64-i128:128-f80:128-n8:16:32:64-S128"
target triple = "x86_64-pc-linux-gnu"

%struct.aiScene = type { i32, ptr, i32, ptr, i32, ptr, i32, ptr, i32, ptr, i32, ptr, i32, ptr, ptr, %struct.aiString, i32, ptr, ptr }
%struct.aiString = type { i32, [1024 x i8] }

@.str = private unnamed_addr constant [30 x i8] c"LimitBoneWeightsProcess begin\00", align 1
@.str.1 = private unnamed_addr constant [28 x i8] c"LimitBoneWeightsProcess end\00", align 1

; Function Attrs: mustprogress uwtable
define void @_ZN6Assimp23LimitBoneWeightsProcess7ExecuteEP7aiScene(ptr noundef nonnull align 8 dereferenceable(29) %0, ptr noundef %1) unnamed_addr #2 align 2 {
  %3 = alloca ptr, align 8
  %4 = alloca ptr, align 8
  %5 = alloca i32, align 4
  store ptr %0, ptr %3, align 8
  store ptr %1, ptr %4, align 8
  %6 = load ptr, ptr %3, align 8
  %7 = call noundef ptr @_ZN6Assimp13DefaultLogger3getEv()
  call void @_ZN6Assimp6Logger5debugEPKc(ptr noundef nonnull align 8 dereferenceable(12) %7, ptr noundef @.str)
  call void @llvm.lifetime.start.p0(i64 4, ptr %5) #15
  store i32 0, ptr %5, align 4
  br label %8

8:                                                ; preds = %23, %2
  %9 = load i32, ptr %5, align 4
  %10 = load ptr, ptr %4, align 8
  %11 = getelementptr inbounds nuw %struct.aiScene, ptr %10, i32 0, i32 2
  %12 = load i32, ptr %11, align 8
  %13 = icmp ult i32 %9, %12
  br i1 %13, label %15, label %14

14:                                               ; preds = %8
  call void @llvm.lifetime.end.p0(i64 4, ptr %5) #15
  br label %26

15:                                               ; preds = %8
  %16 = load ptr, ptr %4, align 8
  %17 = getelementptr inbounds nuw %struct.aiScene, ptr %16, i32 0, i32 3
  %18 = load ptr, ptr %17, align 8
  %19 = load i32, ptr %5, align 4
  %20 = zext i32 %19 to i64
  %21 = getelementptr inbounds nuw ptr, ptr %18, i64 %20
  %22 = load ptr, ptr %21, align 8
  call void @_ZN6Assimp23LimitBoneWeightsProcess11ProcessMeshEP6aiMesh(ptr noundef nonnull align 8 dereferenceable(29) %6, ptr noundef %22)
  br label %23

23:                                               ; preds = %15
  %24 = load i32, ptr %5, align 4
  %25 = add i32 %24, 1
  store i32 %25, ptr %5, align 4
  br label %8, !llvm.loop !3

26:                                               ; preds = %14
  %27 = call noundef ptr @_ZN6Assimp13DefaultLogger3getEv()
  call void @_ZN6Assimp6Logger5debugEPKc(ptr noundef nonnull align 8 dereferenceable(12) %27, ptr noundef @.str.1)
  ret void
}